target datalayout = "e-m:e-p270:32:32-p271:32:32-p272:64:64-i64:64-i128:128-f80:128-n8:16:32:64-S128"
target triple = "x86_64-pc-linux-gnu"

%"class.icu_77::StringPiece" = type <{ ptr, i32, [4 x i8] }>

; Function Attrs: inlinehint mustprogress nounwind uwtable
define internal noundef signext i8 @_ZL9U_SUCCESS10UErrorCode(i32 noundef %0) #2 {
  %2 = alloca i32, align 4
  store i32 %0, ptr %2, align 4, !tbaa !15
  %3 = load i32, ptr %2, align 4, !tbaa !15
  %4 = icmp sle i32 %3, 0
  %5 = zext i1 %4 to i8
  ret i8 %5
}

; Function Attrs: inlinehint mustprogress nounwind uwtable
define internal noundef signext i8 @_ZL9U_FAILURE10UErrorCode(i32 noundef %0) #2 {
  %2 = alloca i32, align 4
  store i32 %0, ptr %2, align 4, !tbaa !15
  %3 = load i32, ptr %2, align 4, !tbaa !15
  %4 = icmp sgt i32 %3, 0
  %5 = zext i1 %4 to i8
  ret i8 %5
}

; Function Attrs: mustprogress uwtable
define void @_Z19ucasemap_mapUTF8_77ijPN6icu_7713BreakIteratorEPKciPFvijS1_PKhiRNS_8ByteSinkEPNS_5EditsER10UErrorCodeES7_S9_SB_(i32 noundef %0, i32 noundef %1, ptr noundef %2, ptr noundef %3, i32 noundef %4, ptr noundef %5, ptr noundef nonnull align 8 dereferenceable(8) %6, ptr noundef %7, ptr noundef nonnull align 4 dereferenceable(4) %8) #1 {
  %10 = alloca i32, align 4
  %11 = alloca i32, align 4
  %12 = alloca ptr, align 8
  %13 = alloca ptr, align 8
  %14 = alloca i32, align 4
  %15 = alloca ptr, align 8
  %16 = alloca ptr, align 8
  %17 = alloca ptr, align 8
  %18 = alloca ptr, align 8
  store i32 %0, ptr %10, align 4, !tbaa !14
  store i32 %1, ptr %11, align 4, !tbaa !14
  store ptr %2, ptr %12, align 8, !tbaa !33
  store ptr %3, ptr %13, align 8, !tbaa !17
  store i32 %4, ptr %14, align 4, !tbaa !14
  store ptr %5, ptr %15, align 8, !tbaa !22
  store ptr %6, ptr %16, align 8, !tbaa !34
  store ptr %7, ptr %17, align 8, !tbaa !36
  store ptr %8, ptr %18, align 8, !tbaa !22
  %19 = load ptr, ptr %18, align 8, !tbaa !22
  %20 = load i32, ptr %19, align 4, !tbaa !15
  %21 = call noundef signext i8 @_ZL9U_FAILURE10UErrorCode(i32 noundef %20)
  %22 = icmp ne i8 %21, 0
  br i1 %22, label %23, label %24

23:                                               ; preds = %9
  br label %77

24:                                               ; preds = %9
  %25 = load ptr, ptr %13, align 8, !tbaa !17
  %26 = icmp eq ptr %25, null
  br i1 %26, label %27, label %30

27:                                               ; preds = %24
  %28 = load i32, ptr %14, align 4, !tbaa !14
  %29 = icmp ne i32 %28, 0
  br i1 %29, label %33, label %30

30:                                               ; preds = %27, %24
  %31 = load i32, ptr %14, align 4, !tbaa !14
  %32 = icmp slt i32 %31, -1
  br i1 %32, label %33, label %35

33:                                               ; preds = %30, %27
  %34 = load ptr, ptr %18, align 8, !tbaa !22
  store i32 1, ptr %34, align 4, !tbaa !15
  br label %77

35:                                               ; preds = %30
  %36 = load i32, ptr %14, align 4, !tbaa !14
  %37 = icmp eq i32 %36, -1
  br i1 %37, label %38, label %42

38:                                               ; preds = %35
  %39 = load ptr, ptr %13, align 8, !tbaa !17
  %40 = call i64 @strlen(ptr noundef %39) #15
  %41 = trunc i64 %40 to i32
  store i32 %41, ptr %14, align 4, !tbaa !14
  br label %42

42:                                               ; preds = %38, %35
  %43 = load ptr, ptr %17, align 8, !tbaa !36
  %44 = icmp ne ptr %43, null
  br i1 %44, label %45, label %51

45:                                               ; preds = %42
  %46 = load i32, ptr %11, align 4, !tbaa !14
  %47 = and i32 %46, 8192
  %48 = icmp eq i32 %47, 0
  br i1 %48, label %49, label %51

49:                                               ; preds = %45
  %50 = load ptr, ptr %17, align 8, !tbaa !36
  call void @_ZN6icu_775Edits5resetEv(ptr noundef nonnull align 8 dereferenceable(232) %50) #12
  br label %51

51:                                               ; preds = %49, %45, %42
  %52 = load ptr, ptr %15, align 8, !tbaa !22
  %53 = load i32, ptr %10, align 4, !tbaa !14
  %54 = load i32, ptr %11, align 4, !tbaa !14
  %55 = load ptr, ptr %12, align 8, !tbaa !33
  %56 = load ptr, ptr %13, align 8, !tbaa !17
  %57 = load i32, ptr %14, align 4, !tbaa !14
  %58 = load ptr, ptr %16, align 8, !tbaa !34
  %59 = load ptr, ptr %17, align 8, !tbaa !36
  %60 = load ptr, ptr %18, align 8, !tbaa !22
  call void %52(i32 noundef %53, i32 noundef %54, ptr noundef %55, ptr noundef %56, i32 noundef %57, ptr noundef nonnull align 8 dereferenceable(8) %58, ptr noundef %59, ptr noundef nonnull align 4 dereferenceable(4) %60)
  %61 = load ptr, ptr %16, align 8, !tbaa !34
  %62 = load ptr, ptr %61, align 8, !tbaa !31
  %63 = getelementptr inbounds ptr, ptr %62, i64 4
  %64 = load ptr, ptr %63, align 8
  call void %64(ptr noundef nonnull align 8 dereferenceable(8) %61)
  %65 = load ptr, ptr %18, align 8, !tbaa !22
  %66 = load i32, ptr %65, align 4, !tbaa !15
  %67 = call noundef signext i8 @_ZL9U_SUCCESS10UErrorCode(i32 noundef %66)
  %68 = icmp ne i8 %67, 0
  br i1 %68, label %69, label %77

69:                                               ; preds = %51
  %70 = load ptr, ptr %17, align 8, !tbaa !36
  %71 = icmp ne ptr %70, null
  br i1 %71, label %72, label %76

72:                                               ; preds = %69
  %73 = load ptr, ptr %17, align 8, !tbaa !36
  %74 = load ptr, ptr %18, align 8, !tbaa !22
  %75 = call noundef signext i8 @_ZNK6icu_775Edits11copyErrorToER10UErrorCode(ptr noundef nonnull align 8 dereferenceable(232) %73, ptr noundef nonnull align 4 dereferenceable(4) %74)
  br label %76

76:                                               ; preds = %72, %69
  br label %77

77:                                               ; preds = %23, %33, %76, %51
  ret void
}

; Function Attrs: mustprogress nounwind uwtable
define linkonce_odr noundef i32 @_ZNK6icu_7711StringPiece6lengthEv(ptr noundef nonnull align 8 dereferenceable(12) %0) #0 comdat align 2 {
  %2 = alloca ptr, align 8
  store ptr %0, ptr %2, align 8, !tbaa !82
  %3 = load ptr, ptr %2, align 8
  %4 = getelementptr inbounds nuw %"class.icu_77::StringPiece", ptr %3, i32 0, i32 1
  %5 = load i32, ptr %4, align 8, !tbaa !86
  ret i32 %5
}

; Function Attrs: mustprogress nounwind uwtable
define linkonce_odr noundef ptr @_ZNK6icu_7711StringPiece4dataEv(ptr noundef nonnull align 8 dereferenceable(12) %0) #0 comdat align 2 {
  %2 = alloca ptr, align 8
  store ptr %0, ptr %2, align 8, !tbaa !82
  %3 = load ptr, ptr %2, align 8
  %4 = getelementptr inbounds nuw %"class.icu_77::StringPiece", ptr %3, i32 0, i32 0
  %5 = load ptr, ptr %4, align 8, !tbaa !84
  ret ptr %5
}

; Function Attrs: mustprogress uwtable
define void @_ZN6icu_777CaseMap8utf8FoldEjNS_11StringPieceERNS_8ByteSinkEPNS_5EditsER10UErrorCode(i32 noundef %0, ptr %1, i32 %2, ptr noundef nonnull align 8 dereferenceable(8) %3, ptr noundef %4, ptr noundef nonnull align 4 dereferenceable(4) %5) #1 align 2 {
  %7 = alloca %"class.icu_77::StringPiece", align 8
  %8 = alloca i32, align 4
  %9 = alloca ptr, align 8
  %10 = alloca ptr, align 8
  %11 = alloca ptr, align 8
  %12 = getelementptr inbounds nuw { ptr, i32 }, ptr %7, i32 0, i32 0
  store ptr %1, ptr %12, align 8
  %13 = getelementptr inbounds nuw { ptr, i32 }, ptr %7, i32 0, i32 1
  store i32 %2, ptr %13, align 8
  store i32 %0, ptr %8, align 4, !tbaa !14
  store ptr %3, ptr %9, align 8, !tbaa !34
  store ptr %4, ptr %10, align 8, !tbaa !36
  store ptr %5, ptr %11, align 8, !tbaa !22
  %14 = load i32, ptr %8, align 4, !tbaa !14
  %15 = call noundef ptr @_ZNK6icu_7711StringPiece4dataEv(ptr noundef nonnull align 8 dereferenceable(12) %7)
  %16 = call noundef i32 @_ZNK6icu_7711StringPiece6lengthEv(ptr noundef nonnull align 8 dereferenceable(12) %7)
  %17 = load ptr, ptr %9, align 8, !tbaa !34
  %18 = load ptr, ptr %10, align 8, !tbaa !36
  %19 = load ptr, ptr %11, align 8, !tbaa !22
  call void @_Z19ucasemap_mapUTF8_77ijPN6icu_7713BreakIteratorEPKciPFvijS1_PKhiRNS_8ByteSinkEPNS_5EditsER10UErrorCodeES7_S9_SB_(i32 noundef 1, i32 noundef %14, ptr noundef null, ptr noundef %15, i32 noundef %16, ptr noundef @_ZL25ucasemap_internalUTF8FoldijPN6icu_7713BreakIteratorEPKhiRNS_8ByteSinkEPNS_5EditsER10UErrorCode, ptr noundef nonnull align 8 dereferenceable(8) %17, ptr noundef %18, ptr noundef nonnull align 4 dereferenceable(4) %19)
  ret void
}