; Function Attrs: mustprogress uwtable
define void @_ZN6icu_777CaseMap8utf8FoldEjNS_11StringPieceERNS_8ByteSinkEPNS_5EditsER10UErrorCode(i32 noundef %0, ptr %1, i32 %2, ptr noundef nonnull align 8 dereferenceable(8) %3, ptr noundef %4, ptr noundef nonnull align 4 dereferenceable(4) %5) local_unnamed_addr #1 align 2 {
  %7 = load i32, ptr %5, align 4, !tbaa !13
  %8 = icmp slt i32 %7, 1
  br i1 %8, label %9, label %_Z19ucasemap_mapUTF8_77ijPN6icu_7713BreakIteratorEPKciPFvijS1_PKhiRNS_8ByteSinkEPNS_5EditsER10UErrorCodeES7_S9_SB_.exit

9:                                                ; preds = %6
  %10 = icmp eq ptr %1, null
  %11 = icmp ne i32 %2, 0
  %or.cond.i = and i1 %10, %11
  %12 = icmp slt i32 %2, -1
  %or.cond3.i = or i1 %12, %or.cond.i
  br i1 %or.cond3.i, label %13, label %14

13:                                               ; preds = %9
  store i32 1, ptr %5, align 4, !tbaa !13
  br label %_Z19ucasemap_mapUTF8_77ijPN6icu_7713BreakIteratorEPKciPFvijS1_PKhiRNS_8ByteSinkEPNS_5EditsER10UErrorCodeES7_S9_SB_.exit

14:                                               ; preds = %9
  %15 = icmp eq i32 %2, -1
  br i1 %15, label %16, label %19

16:                                               ; preds = %14
  %17 = tail call i64 @strlen(ptr noundef nonnull dereferenceable(1) %1) #20
  %18 = trunc i64 %17 to i32
  br label %19

19:                                               ; preds = %16, %14
  %.0.i = phi i32 [ %18, %16 ], [ %2, %14 ]
  %20 = icmp ne ptr %4, null
  %21 = and i32 %0, 8192
  %22 = icmp eq i32 %21, 0
  %or.cond31.i = and i1 %22, %20
  br i1 %or.cond31.i, label %23, label %24

23:                                               ; preds = %19
  tail call void @_ZN6icu_775Edits5resetEv(ptr noundef nonnull align 8 dereferenceable(232) %4) #17
  br label %24

24:                                               ; preds = %23, %19
  tail call fastcc void @_ZN12_GLOBAL__N_17toLowerEijPKhP12UCaseContextiiRN6icu_778ByteSinkEPNS4_5EditsER10UErrorCode(i32 noundef -1, i32 noundef %0, ptr noundef %1, ptr noundef null, i32 noundef 0, i32 noundef %.0.i, ptr noundef nonnull align 8 dereferenceable(8) %3, ptr noundef %4, ptr noundef nonnull align 4 dereferenceable(4) %5)
  %25 = load ptr, ptr %3, align 8, !tbaa !21
  %26 = getelementptr inbounds nuw i8, ptr %25, i64 32
  %27 = load ptr, ptr %26, align 8
  tail call void %27(ptr noundef nonnull align 8 dereferenceable(8) %3)
  %28 = load i32, ptr %5, align 4, !tbaa !13
  %29 = icmp slt i32 %28, 1
  %or.cond5.i = and i1 %20, %29
  br i1 %or.cond5.i, label %30, label %_Z19ucasemap_mapUTF8_77ijPN6icu_7713BreakIteratorEPKciPFvijS1_PKhiRNS_8ByteSinkEPNS_5EditsER10UErrorCodeES7_S9_SB_.exit

30:                                               ; preds = %24
  %31 = tail call noundef signext i8 @_ZNK6icu_775Edits11copyErrorToER10UErrorCode(ptr noundef nonnull align 8 dereferenceable(232) %4, ptr noundef nonnull align 4 dereferenceable(4) %5)
  br label %_Z19ucasemap_mapUTF8_77ijPN6icu_7713BreakIteratorEPKciPFvijS1_PKhiRNS_8ByteSinkEPNS_5EditsER10UErrorCodeES7_S9_SB_.exit

_Z19ucasemap_mapUTF8_77ijPN6icu_7713BreakIteratorEPKciPFvijS1_PKhiRNS_8ByteSinkEPNS_5EditsER10UErrorCodeES7_S9_SB_.exit: ; preds = %6, %13, %24, %30
  ret void
}